; Function Attrs: mustprogress uwtable
define noundef i32 @_ZNK6icu_756number4impl31CurrencyPluralInfoAffixProvider6lengthEi(ptr noundef nonnull align 8 dereferenceable(2185) %this, i32 noundef %flags) unnamed_addr #1 align 2 {
entry:
  %and = and i32 %flags, 255
  %affixesByPlural = getelementptr inbounds i8, ptr %this, i64 8
  %idxprom = zext nneg i32 %and to i64
  %arrayidx = getelementptr inbounds [8 x %"class.icu_75::number::impl::PropertiesAffixPatternProvider"], ptr %affixesByPlural, i64 0, i64 %idxprom
  %vtable = load ptr, ptr %arrayidx, align 8
  %vfn = getelementptr inbounds i8, ptr %vtable, i64 24
  %0 = load ptr, ptr %vfn, align 8
  %call = tail call noundef i32 %0(ptr noundef nonnull align 8 dereferenceable(267) %arrayidx, i32 noundef %flags)
  ret i32 %call
}